((dp0
S'militaryparade'
p1
I53
sS'haircut'
p2
I34
sS'parallelbars'
p3
I57
sS'cliffdiving'
p4
I22
sS'skiing'
p5
I81
sS'balancebeam'
p6
I5
sS'taichi'
p7
I91
sS'frontcrawl'
p8
I32
sS'yoyo'
p9
I101
sS'horseriding'
p10
I42
sS'applyeyemakeup'
p11
I1
sS'boxingspeedbag'
p12
I18
sS'babycrawling'
p13
I4
sS'playingtabla'
p14
I66
sS'handstandwalking'
p15
I38
sS'mixing'
p16
I54
sS'handstandpushups'
p17
I37
sS'cleanandjerk'
p18
I21
sS'rowing'
p19
I76
sS'kayaking'
p20
I49
sS'bowling'
p21
I16
sS'blowdryhair'
p22
I13
sS'golfswing'
p23
I33
sS'soccerpenalty'
p24
I85
sS'writingonboard'
p25
I100
sS'javelinthrow'
p26
I45
sS'jumprope'
p27
I48
sS'hammerthrow'
p28
I36
sS'baseballpitch'
p29
I7
sS'salsaspin'
p30
I77
sS'skateboarding'
p31
I80
sS'diving'
p32
I26
sS'pommelhorse'
p33
I69
sS'icedancing'
p34
I44
sS'highjump'
p35
I40
sS'basketballdunk'
p36
I9
sS'cuttinginkitchen'
p37
I25
sS'punch'
p38
I71
sS'pullups'
p39
I70
sS'rockclimbingindoor'
p40
I74
sS'bandmarching'
p41
I6
sS'shotput'
p42
I79
sS'drumming'
p43
I27
sS'playingdaf'
p44
I60
sS'tennisswing'
p45
I92
sS'playingviolin'
p46
I67
sS'blowingcandles'
p47
I14
sS'bodyweightsquats'
p48
I15
sS'swing'
p49
I89
sS'rafting'
p50
I73
sS'playingdhol'
p51
I61
sS'trampolinejumping'
p52
I94
sS'polevault'
p53
I68
sS'cricketshot'
p54
I24
sS'playingcello'
p55
I59
sS'cricketbowling'
p56
I23
sS'longjump'
p57
I51
sS'moppingfloor'
p58
I55
sS'throwdiscus'
p59
I93
sS'basketball'
p60
I8
sS'volleyballspiking'
p61
I97
sS'stillrings'
p62
I86
sS'fieldhockeypenalty'
p63
I29
sS'playingpiano'
p64
I64
sS'floorgymnastics'
p65
I30
sS'typing'
p66
I95
sS'archery'
p67
I3
sS'lunges'
p68
I52
sS'skijet'
p69
I82
sS'headmassage'
p70
I39
sS'playingsitar'
p71
I65
sS'horserace'
p72
I41
sS'tabletennisshot'
p73
I90
sS'biking'
p74
I11
sS'pizzatossing'
p75
I58
sS'skydiving'
p76
I83
sS'unevenbars'
p77
I96
sS'playingflute'
p78
I62
sS'benchpress'
p79
I10
sS'fencing'
p80
I28
sS'billiards'
p81
I12
sS'sumowrestling'
p82
I87
sS'pushups'
p83
I72
sS'shavingbeard'
p84
I78
sS'playingguitar'
p85
I63
sS'breaststroke'
p86
I19
sS'applylipstick'
p87
I2
sS'frisbeecatch'
p88
I31
sS'jumpingjack'
p89
I47
sS'hammering'
p90
I35
sS'knitting'
p91
I50
sS'wallpushups'
p92
I99
sS'hulahoop'
p93
I43
sS'ropeclimbing'
p94
I75
sS'soccerjuggling'
p95
I84
sS'brushingteeth'
p96
I20
sS'walkingwithdog'
p97
I98
sS'nunchucks'
p98
I56
sS'surfing'
p99
I88
sS'boxingpunchingbag'
p100
I17
sS'jugglingballs'
p101
I46
s(dp102
I1
g11
sI2
g87
sI3
g67
sI4
g13
sI5
g6
sI6
g41
sI7
g29
sI8
g60
sI9
g36
sI10
g79
sI11
g74
sI12
g81
sI13
g22
sI14
g47
sI15
g48
sI16
g21
sI17
g100
sI18
g12
sI19
g86
sI20
g96
sI21
g18
sI22
g4
sI23
g56
sI24
g54
sI25
g37
sI26
g32
sI27
g43
sI28
g80
sI29
g63
sI30
g65
sI31
g88
sI32
g8
sI33
g23
sI34
g2
sI35
g90
sI36
g28
sI37
g17
sI38
g15
sI39
g70
sI40
g35
sI41
g72
sI42
g10
sI43
g93
sI44
g34
sI45
g26
sI46
g101
sI47
g89
sI48
g27
sI49
g20
sI50
g91
sI51
g57
sI52
g68
sI53
g1
sI54
g16
sI55
g58
sI56
g98
sI57
g3
sI58
g75
sI59
g55
sI60
g44
sI61
g51
sI62
g78
sI63
g85
sI64
g64
sI65
g71
sI66
g14
sI67
g46
sI68
g53
sI69
g33
sI70
g39
sI71
g38
sI72
g83
sI73
g50
sI74
g40
sI75
g94
sI76
g19
sI77
g30
sI78
g84
sI79
g42
sI80
g31
sI81
g5
sI82
g69
sI83
g76
sI84
g95
sI85
g24
sI86
g62
sI87
g82
sI88
g99
sI89
g49
sI90
g73
sI91
g7
sI92
g45
sI93
g59
sI94
g52
sI95
g66
sI96
g77
sI97
g61
sI98
g97
sI99
g92
sI100
g25
sI101
g9
stp103
.