((dp0
S'HighJump'
p1
I12
sS'JavelinThrow'
p2
I13
sS'PoleVault'
p3
I15
sS'Background'
p4
I0
sS'VolleyballSpiking'
p5
I20
sS'BasketballDunk'
p6
I2
sS'CleanAndJerk'
p7
I4
sS'Billiards'
p8
I3
sS'CricketShot'
p9
I7
sS'SoccerPenalty'
p10
I17
sS'HammerThrow'
p11
I11
sS'BaseballPitch'
p12
I1
sS'TennisSwing'
p13
I18
sS'CliffDiving'
p14
I5
sS'Diving'
p15
I8
sS'CricketBowling'
p16
I6
sS'LongJump'
p17
I14
sS'GolfSwing'
p18
I10
sS'Shotput'
p19
I16
sS'FrisbeeCatch'
p20
I9
sS'ThrowDiscus'
p21
I19
s(dp22
I0
g4
sI1
g12
sI2
g6
sI3
g8
sI4
g7
sI5
g14
sI6
g16
sI7
g9
sI8
g15
sI9
g20
sI10
g18
sI11
g11
sI12
g1
sI13
g2
sI14
g17
sI15
g3
sI16
g19
sI17
g10
sI18
g13
sI19
g21
sI20
g5
s(dp23
I0
I0
sI33
I10
sI36
I11
sI7
I1
sI40
I12
sI9
I2
sI97
I20
sI12
I3
sI45
I13
sI79
I16
sI51
I14
sI21
I4
sI22
I5
sI23
I6
sI24
I7
sI68
I15
sI26
I8
sI92
I18
sI93
I19
sI85
I17
sI31
I9
stp24
.