(dp0
I1
(lp1
S'v_ApplyEyeMakeup_g08_c01.avi'
p2
aS'v_ApplyEyeMakeup_g08_c02.avi'
p3
aS'v_ApplyEyeMakeup_g08_c03.avi'
p4
aS'v_ApplyEyeMakeup_g08_c04.avi'
p5
aS'v_ApplyEyeMakeup_g08_c05.avi'
p6
aS'v_ApplyEyeMakeup_g09_c01.avi'
p7
aS'v_ApplyEyeMakeup_g09_c02.avi'
p8
aS'v_ApplyEyeMakeup_g09_c03.avi'
p9
aS'v_ApplyEyeMakeup_g09_c04.avi'
p10
aS'v_ApplyEyeMakeup_g09_c05.avi'
p11
asI2
(lp12
S'v_ApplyLipstick_g08_c01.avi'
p13
aS'v_ApplyLipstick_g08_c02.avi'
p14
aS'v_ApplyLipstick_g08_c03.avi'
p15
aS'v_ApplyLipstick_g08_c04.avi'
p16
aS'v_ApplyLipstick_g09_c01.avi'
p17
aS'v_ApplyLipstick_g09_c02.avi'
p18
aS'v_ApplyLipstick_g09_c03.avi'
p19
aS'v_ApplyLipstick_g09_c04.avi'
p20
aS'v_ApplyLipstick_g10_c01.avi'
p21
aS'v_ApplyLipstick_g10_c02.avi'
p22
asI3
(lp23
S'v_Archery_g08_c01.avi'
p24
aS'v_Archery_g08_c02.avi'
p25
aS'v_Archery_g08_c03.avi'
p26
aS'v_Archery_g08_c04.avi'
p27
aS'v_Archery_g08_c05.avi'
p28
aS'v_Archery_g09_c01.avi'
p29
aS'v_Archery_g09_c02.avi'
p30
aS'v_Archery_g09_c03.avi'
p31
aS'v_Archery_g09_c04.avi'
p32
aS'v_Archery_g09_c05.avi'
p33
asI4
(lp34
S'v_BabyCrawling_g08_c01.avi'
p35
aS'v_BabyCrawling_g08_c02.avi'
p36
aS'v_BabyCrawling_g08_c03.avi'
p37
aS'v_BabyCrawling_g08_c04.avi'
p38
aS'v_BabyCrawling_g09_c01.avi'
p39
aS'v_BabyCrawling_g09_c02.avi'
p40
aS'v_BabyCrawling_g09_c03.avi'
p41
aS'v_BabyCrawling_g09_c04.avi'
p42
aS'v_BabyCrawling_g09_c05.avi'
p43
aS'v_BabyCrawling_g09_c06.avi'
p44
asI5
(lp45
S'v_BalanceBeam_g08_c01.avi'
p46
aS'v_BalanceBeam_g08_c02.avi'
p47
aS'v_BalanceBeam_g08_c03.avi'
p48
aS'v_BalanceBeam_g08_c04.avi'
p49
aS'v_BalanceBeam_g09_c01.avi'
p50
aS'v_BalanceBeam_g09_c02.avi'
p51
aS'v_BalanceBeam_g09_c03.avi'
p52
aS'v_BalanceBeam_g09_c04.avi'
p53
aS'v_BalanceBeam_g10_c01.avi'
p54
aS'v_BalanceBeam_g10_c02.avi'
p55
asI6
(lp56
S'v_BandMarching_g08_c01.avi'
p57
aS'v_BandMarching_g08_c02.avi'
p58
aS'v_BandMarching_g08_c03.avi'
p59
aS'v_BandMarching_g08_c04.avi'
p60
aS'v_BandMarching_g08_c05.avi'
p61
aS'v_BandMarching_g08_c06.avi'
p62
aS'v_BandMarching_g08_c07.avi'
p63
aS'v_BandMarching_g09_c01.avi'
p64
aS'v_BandMarching_g09_c02.avi'
p65
aS'v_BandMarching_g09_c03.avi'
p66
asI7
(lp67
S'v_BaseballPitch_g08_c01.avi'
p68
aS'v_BaseballPitch_g08_c02.avi'
p69
aS'v_BaseballPitch_g08_c03.avi'
p70
aS'v_BaseballPitch_g08_c04.avi'
p71
aS'v_BaseballPitch_g08_c05.avi'
p72
aS'v_BaseballPitch_g08_c06.avi'
p73
aS'v_BaseballPitch_g08_c07.avi'
p74
aS'v_BaseballPitch_g09_c01.avi'
p75
aS'v_BaseballPitch_g09_c02.avi'
p76
aS'v_BaseballPitch_g09_c03.avi'
p77
asI8
(lp78
S'v_Basketball_g08_c01.avi'
p79
aS'v_Basketball_g08_c02.avi'
p80
aS'v_Basketball_g08_c03.avi'
p81
aS'v_Basketball_g08_c04.avi'
p82
aS'v_Basketball_g09_c01.avi'
p83
aS'v_Basketball_g09_c02.avi'
p84
aS'v_Basketball_g09_c03.avi'
p85
aS'v_Basketball_g09_c04.avi'
p86
aS'v_Basketball_g09_c05.avi'
p87
aS'v_Basketball_g10_c01.avi'
p88
asI9
(lp89
S'v_BasketballDunk_g08_c01.avi'
p90
aS'v_BasketballDunk_g08_c02.avi'
p91
aS'v_BasketballDunk_g08_c03.avi'
p92
aS'v_BasketballDunk_g08_c04.avi'
p93
aS'v_BasketballDunk_g08_c05.avi'
p94
aS'v_BasketballDunk_g09_c01.avi'
p95
aS'v_BasketballDunk_g09_c02.avi'
p96
aS'v_BasketballDunk_g09_c03.avi'
p97
aS'v_BasketballDunk_g09_c04.avi'
p98
aS'v_BasketballDunk_g09_c05.avi'
p99
asI10
(lp100
S'v_BenchPress_g08_c01.avi'
p101
aS'v_BenchPress_g08_c02.avi'
p102
aS'v_BenchPress_g08_c03.avi'
p103
aS'v_BenchPress_g08_c04.avi'
p104
aS'v_BenchPress_g08_c05.avi'
p105
aS'v_BenchPress_g08_c06.avi'
p106
aS'v_BenchPress_g08_c07.avi'
p107
aS'v_BenchPress_g09_c01.avi'
p108
aS'v_BenchPress_g09_c02.avi'
p109
aS'v_BenchPress_g09_c03.avi'
p110
asI11
(lp111
S'v_Biking_g08_c01.avi'
p112
aS'v_Biking_g08_c02.avi'
p113
aS'v_Biking_g08_c03.avi'
p114
aS'v_Biking_g08_c04.avi'
p115
aS'v_Biking_g08_c05.avi'
p116
aS'v_Biking_g08_c06.avi'
p117
aS'v_Biking_g09_c01.avi'
p118
aS'v_Biking_g09_c02.avi'
p119
aS'v_Biking_g09_c03.avi'
p120
aS'v_Biking_g09_c04.avi'
p121
asI12
(lp122
S'v_Billiards_g08_c01.avi'
p123
aS'v_Billiards_g08_c02.avi'
p124
aS'v_Billiards_g08_c03.avi'
p125
aS'v_Billiards_g08_c04.avi'
p126
aS'v_Billiards_g08_c05.avi'
p127
aS'v_Billiards_g08_c06.avi'
p128
aS'v_Billiards_g09_c01.avi'
p129
aS'v_Billiards_g09_c02.avi'
p130
aS'v_Billiards_g09_c03.avi'
p131
aS'v_Billiards_g09_c04.avi'
p132
asI13
(lp133
S'v_BlowDryHair_g08_c01.avi'
p134
aS'v_BlowDryHair_g08_c02.avi'
p135
aS'v_BlowDryHair_g08_c03.avi'
p136
aS'v_BlowDryHair_g08_c04.avi'
p137
aS'v_BlowDryHair_g08_c05.avi'
p138
aS'v_BlowDryHair_g08_c06.avi'
p139
aS'v_BlowDryHair_g08_c07.avi'
p140
aS'v_BlowDryHair_g09_c01.avi'
p141
aS'v_BlowDryHair_g09_c02.avi'
p142
aS'v_BlowDryHair_g09_c03.avi'
p143
asI14
(lp144
S'v_BlowingCandles_g08_c01.avi'
p145
aS'v_BlowingCandles_g08_c02.avi'
p146
aS'v_BlowingCandles_g08_c03.avi'
p147
aS'v_BlowingCandles_g08_c04.avi'
p148
aS'v_BlowingCandles_g09_c01.avi'
p149
aS'v_BlowingCandles_g09_c02.avi'
p150
aS'v_BlowingCandles_g09_c03.avi'
p151
aS'v_BlowingCandles_g09_c04.avi'
p152
aS'v_BlowingCandles_g10_c01.avi'
p153
aS'v_BlowingCandles_g10_c02.avi'
p154
asI15
(lp155
S'v_BodyWeightSquats_g08_c01.avi'
p156
aS'v_BodyWeightSquats_g08_c02.avi'
p157
aS'v_BodyWeightSquats_g08_c03.avi'
p158
aS'v_BodyWeightSquats_g08_c04.avi'
p159
aS'v_BodyWeightSquats_g09_c01.avi'
p160
aS'v_BodyWeightSquats_g09_c02.avi'
p161
aS'v_BodyWeightSquats_g09_c03.avi'
p162
aS'v_BodyWeightSquats_g09_c04.avi'
p163
aS'v_BodyWeightSquats_g09_c05.avi'
p164
aS'v_BodyWeightSquats_g09_c06.avi'
p165
asI16
(lp166
S'v_Bowling_g08_c01.avi'
p167
aS'v_Bowling_g08_c02.avi'
p168
aS'v_Bowling_g08_c03.avi'
p169
aS'v_Bowling_g08_c04.avi'
p170
aS'v_Bowling_g08_c05.avi'
p171
aS'v_Bowling_g08_c06.avi'
p172
aS'v_Bowling_g08_c07.avi'
p173
aS'v_Bowling_g09_c01.avi'
p174
aS'v_Bowling_g09_c02.avi'
p175
aS'v_Bowling_g09_c03.avi'
p176
asI17
(lp177
S'v_BoxingPunchingBag_g08_c01.avi'
p178
aS'v_BoxingPunchingBag_g08_c02.avi'
p179
aS'v_BoxingPunchingBag_g08_c03.avi'
p180
aS'v_BoxingPunchingBag_g08_c04.avi'
p181
aS'v_BoxingPunchingBag_g08_c05.avi'
p182
aS'v_BoxingPunchingBag_g08_c06.avi'
p183
aS'v_BoxingPunchingBag_g08_c07.avi'
p184
aS'v_BoxingPunchingBag_g09_c01.avi'
p185
aS'v_BoxingPunchingBag_g09_c02.avi'
p186
aS'v_BoxingPunchingBag_g09_c03.avi'
p187
asI18
(lp188
S'v_BoxingSpeedBag_g08_c01.avi'
p189
aS'v_BoxingSpeedBag_g08_c02.avi'
p190
aS'v_BoxingSpeedBag_g08_c03.avi'
p191
aS'v_BoxingSpeedBag_g08_c04.avi'
p192
aS'v_BoxingSpeedBag_g08_c05.avi'
p193
aS'v_BoxingSpeedBag_g09_c01.avi'
p194
aS'v_BoxingSpeedBag_g09_c02.avi'
p195
aS'v_BoxingSpeedBag_g09_c03.avi'
p196
aS'v_BoxingSpeedBag_g09_c04.avi'
p197
aS'v_BoxingSpeedBag_g09_c05.avi'
p198
asI19
(lp199
S'v_BreastStroke_g08_c01.avi'
p200
aS'v_BreastStroke_g08_c02.avi'
p201
aS'v_BreastStroke_g08_c03.avi'
p202
aS'v_BreastStroke_g08_c04.avi'
p203
aS'v_BreastStroke_g09_c01.avi'
p204
aS'v_BreastStroke_g09_c02.avi'
p205
aS'v_BreastStroke_g09_c03.avi'
p206
aS'v_BreastStroke_g09_c04.avi'
p207
aS'v_BreastStroke_g10_c01.avi'
p208
aS'v_BreastStroke_g10_c02.avi'
p209
asI20
(lp210
S'v_BrushingTeeth_g08_c01.avi'
p211
aS'v_BrushingTeeth_g08_c02.avi'
p212
aS'v_BrushingTeeth_g08_c03.avi'
p213
aS'v_BrushingTeeth_g08_c04.avi'
p214
aS'v_BrushingTeeth_g08_c05.avi'
p215
aS'v_BrushingTeeth_g08_c06.avi'
p216
aS'v_BrushingTeeth_g09_c01.avi'
p217
aS'v_BrushingTeeth_g09_c02.avi'
p218
aS'v_BrushingTeeth_g09_c03.avi'
p219
aS'v_BrushingTeeth_g09_c04.avi'
p220
asI21
(lp221
S'v_CleanAndJerk_g08_c01.avi'
p222
aS'v_CleanAndJerk_g08_c02.avi'
p223
aS'v_CleanAndJerk_g08_c03.avi'
p224
aS'v_CleanAndJerk_g08_c04.avi'
p225
aS'v_CleanAndJerk_g09_c01.avi'
p226
aS'v_CleanAndJerk_g09_c02.avi'
p227
aS'v_CleanAndJerk_g09_c03.avi'
p228
aS'v_CleanAndJerk_g09_c04.avi'
p229
aS'v_CleanAndJerk_g10_c01.avi'
p230
aS'v_CleanAndJerk_g10_c02.avi'
p231
asI22
(lp232
S'v_CliffDiving_g08_c01.avi'
p233
aS'v_CliffDiving_g08_c02.avi'
p234
aS'v_CliffDiving_g08_c03.avi'
p235
aS'v_CliffDiving_g08_c04.avi'
p236
aS'v_CliffDiving_g09_c01.avi'
p237
aS'v_CliffDiving_g09_c02.avi'
p238
aS'v_CliffDiving_g09_c03.avi'
p239
aS'v_CliffDiving_g09_c04.avi'
p240
aS'v_CliffDiving_g09_c05.avi'
p241
aS'v_CliffDiving_g09_c06.avi'
p242
asI23
(lp243
S'v_CricketBowling_g08_c01.avi'
p244
aS'v_CricketBowling_g08_c02.avi'
p245
aS'v_CricketBowling_g08_c03.avi'
p246
aS'v_CricketBowling_g08_c04.avi'
p247
aS'v_CricketBowling_g08_c05.avi'
p248
aS'v_CricketBowling_g09_c01.avi'
p249
aS'v_CricketBowling_g09_c02.avi'
p250
aS'v_CricketBowling_g09_c03.avi'
p251
aS'v_CricketBowling_g09_c04.avi'
p252
aS'v_CricketBowling_g09_c05.avi'
p253
asI24
(lp254
S'v_CricketShot_g08_c01.avi'
p255
aS'v_CricketShot_g08_c02.avi'
p256
aS'v_CricketShot_g08_c03.avi'
p257
aS'v_CricketShot_g08_c04.avi'
p258
aS'v_CricketShot_g08_c05.avi'
p259
aS'v_CricketShot_g08_c06.avi'
p260
aS'v_CricketShot_g08_c07.avi'
p261
aS'v_CricketShot_g09_c01.avi'
p262
aS'v_CricketShot_g09_c02.avi'
p263
aS'v_CricketShot_g09_c03.avi'
p264
asI25
(lp265
S'v_CuttingInKitchen_g08_c01.avi'
p266
aS'v_CuttingInKitchen_g08_c02.avi'
p267
aS'v_CuttingInKitchen_g08_c03.avi'
p268
aS'v_CuttingInKitchen_g08_c04.avi'
p269
aS'v_CuttingInKitchen_g09_c01.avi'
p270
aS'v_CuttingInKitchen_g09_c02.avi'
p271
aS'v_CuttingInKitchen_g09_c03.avi'
p272
aS'v_CuttingInKitchen_g09_c04.avi'
p273
aS'v_CuttingInKitchen_g10_c01.avi'
p274
aS'v_CuttingInKitchen_g10_c02.avi'
p275
asI26
(lp276
S'v_Diving_g08_c01.avi'
p277
aS'v_Diving_g08_c02.avi'
p278
aS'v_Diving_g08_c03.avi'
p279
aS'v_Diving_g08_c04.avi'
p280
aS'v_Diving_g08_c05.avi'
p281
aS'v_Diving_g08_c06.avi'
p282
aS'v_Diving_g09_c01.avi'
p283
aS'v_Diving_g09_c02.avi'
p284
aS'v_Diving_g09_c03.avi'
p285
aS'v_Diving_g09_c04.avi'
p286
asI27
(lp287
S'v_Drumming_g08_c01.avi'
p288
aS'v_Drumming_g08_c02.avi'
p289
aS'v_Drumming_g08_c03.avi'
p290
aS'v_Drumming_g08_c04.avi'
p291
aS'v_Drumming_g08_c05.avi'
p292
aS'v_Drumming_g09_c01.avi'
p293
aS'v_Drumming_g09_c02.avi'
p294
aS'v_Drumming_g09_c03.avi'
p295
aS'v_Drumming_g09_c04.avi'
p296
aS'v_Drumming_g10_c01.avi'
p297
asI28
(lp298
S'v_Fencing_g08_c01.avi'
p299
aS'v_Fencing_g08_c02.avi'
p300
aS'v_Fencing_g08_c03.avi'
p301
aS'v_Fencing_g08_c04.avi'
p302
aS'v_Fencing_g09_c01.avi'
p303
aS'v_Fencing_g09_c02.avi'
p304
aS'v_Fencing_g09_c03.avi'
p305
aS'v_Fencing_g09_c04.avi'
p306
aS'v_Fencing_g09_c05.avi'
p307
aS'v_Fencing_g09_c06.avi'
p308
asI29
(lp309
S'v_FieldHockeyPenalty_g08_c01.avi'
p310
aS'v_FieldHockeyPenalty_g08_c02.avi'
p311
aS'v_FieldHockeyPenalty_g08_c03.avi'
p312
aS'v_FieldHockeyPenalty_g08_c04.avi'
p313
aS'v_FieldHockeyPenalty_g09_c01.avi'
p314
aS'v_FieldHockeyPenalty_g09_c02.avi'
p315
aS'v_FieldHockeyPenalty_g09_c03.avi'
p316
aS'v_FieldHockeyPenalty_g09_c04.avi'
p317
aS'v_FieldHockeyPenalty_g09_c05.avi'
p318
aS'v_FieldHockeyPenalty_g10_c01.avi'
p319
asI30
(lp320
S'v_FloorGymnastics_g08_c01.avi'
p321
aS'v_FloorGymnastics_g08_c02.avi'
p322
aS'v_FloorGymnastics_g08_c03.avi'
p323
aS'v_FloorGymnastics_g08_c04.avi'
p324
aS'v_FloorGymnastics_g09_c01.avi'
p325
aS'v_FloorGymnastics_g09_c02.avi'
p326
aS'v_FloorGymnastics_g09_c03.avi'
p327
aS'v_FloorGymnastics_g09_c04.avi'
p328
aS'v_FloorGymnastics_g09_c05.avi'
p329
aS'v_FloorGymnastics_g09_c06.avi'
p330
asI31
(lp331
S'v_FrisbeeCatch_g08_c01.avi'
p332
aS'v_FrisbeeCatch_g08_c02.avi'
p333
aS'v_FrisbeeCatch_g08_c03.avi'
p334
aS'v_FrisbeeCatch_g08_c04.avi'
p335
aS'v_FrisbeeCatch_g08_c05.avi'
p336
aS'v_FrisbeeCatch_g09_c01.avi'
p337
aS'v_FrisbeeCatch_g09_c02.avi'
p338
aS'v_FrisbeeCatch_g09_c03.avi'
p339
aS'v_FrisbeeCatch_g09_c04.avi'
p340
aS'v_FrisbeeCatch_g09_c05.avi'
p341
asI32
(lp342
S'v_FrontCrawl_g08_c01.avi'
p343
aS'v_FrontCrawl_g08_c02.avi'
p344
aS'v_FrontCrawl_g08_c03.avi'
p345
aS'v_FrontCrawl_g08_c04.avi'
p346
aS'v_FrontCrawl_g08_c05.avi'
p347
aS'v_FrontCrawl_g09_c01.avi'
p348
aS'v_FrontCrawl_g09_c02.avi'
p349
aS'v_FrontCrawl_g09_c03.avi'
p350
aS'v_FrontCrawl_g09_c04.avi'
p351
aS'v_FrontCrawl_g09_c05.avi'
p352
asI33
(lp353
S'v_GolfSwing_g08_c01.avi'
p354
aS'v_GolfSwing_g08_c02.avi'
p355
aS'v_GolfSwing_g08_c03.avi'
p356
aS'v_GolfSwing_g08_c04.avi'
p357
aS'v_GolfSwing_g08_c05.avi'
p358
aS'v_GolfSwing_g08_c06.avi'
p359
aS'v_GolfSwing_g09_c01.avi'
p360
aS'v_GolfSwing_g09_c02.avi'
p361
aS'v_GolfSwing_g09_c03.avi'
p362
aS'v_GolfSwing_g09_c04.avi'
p363
asI34
(lp364
S'v_Haircut_g08_c01.avi'
p365
aS'v_Haircut_g08_c02.avi'
p366
aS'v_Haircut_g08_c03.avi'
p367
aS'v_Haircut_g08_c04.avi'
p368
aS'v_Haircut_g08_c05.avi'
p369
aS'v_Haircut_g08_c06.avi'
p370
aS'v_Haircut_g09_c01.avi'
p371
aS'v_Haircut_g09_c02.avi'
p372
aS'v_Haircut_g09_c03.avi'
p373
aS'v_Haircut_g09_c04.avi'
p374
asI35
(lp375
S'v_Hammering_g08_c01.avi'
p376
aS'v_Hammering_g08_c02.avi'
p377
aS'v_Hammering_g08_c03.avi'
p378
aS'v_Hammering_g08_c04.avi'
p379
aS'v_Hammering_g09_c01.avi'
p380
aS'v_Hammering_g09_c02.avi'
p381
aS'v_Hammering_g09_c03.avi'
p382
aS'v_Hammering_g09_c04.avi'
p383
aS'v_Hammering_g09_c05.avi'
p384
aS'v_Hammering_g09_c06.avi'
p385
asI36
(lp386
S'v_HammerThrow_g08_c01.avi'
p387
aS'v_HammerThrow_g08_c02.avi'
p388
aS'v_HammerThrow_g08_c03.avi'
p389
aS'v_HammerThrow_g08_c04.avi'
p390
aS'v_HammerThrow_g08_c05.avi'
p391
aS'v_HammerThrow_g08_c06.avi'
p392
aS'v_HammerThrow_g09_c01.avi'
p393
aS'v_HammerThrow_g09_c02.avi'
p394
aS'v_HammerThrow_g09_c03.avi'
p395
aS'v_HammerThrow_g09_c04.avi'
p396
asI37
(lp397
S'v_HandstandPushups_g08_c01.avi'
p398
aS'v_HandstandPushups_g08_c02.avi'
p399
aS'v_HandstandPushups_g08_c03.avi'
p400
aS'v_HandstandPushups_g08_c04.avi'
p401
aS'v_HandstandPushups_g08_c05.avi'
p402
aS'v_HandstandPushups_g09_c01.avi'
p403
aS'v_HandstandPushups_g09_c02.avi'
p404
aS'v_HandstandPushups_g09_c03.avi'
p405
aS'v_HandstandPushups_g09_c04.avi'
p406
aS'v_HandstandPushups_g10_c01.avi'
p407
asI38
(lp408
S'v_HandstandWalking_g08_c01.avi'
p409
aS'v_HandstandWalking_g08_c02.avi'
p410
aS'v_HandstandWalking_g08_c03.avi'
p411
aS'v_HandstandWalking_g08_c04.avi'
p412
aS'v_HandstandWalking_g09_c01.avi'
p413
aS'v_HandstandWalking_g09_c02.avi'
p414
aS'v_HandstandWalking_g09_c03.avi'
p415
aS'v_HandstandWalking_g09_c04.avi'
p416
aS'v_HandstandWalking_g10_c01.avi'
p417
aS'v_HandstandWalking_g10_c02.avi'
p418
asI39
(lp419
S'v_HeadMassage_g08_c01.avi'
p420
aS'v_HeadMassage_g08_c02.avi'
p421
aS'v_HeadMassage_g08_c03.avi'
p422
aS'v_HeadMassage_g08_c04.avi'
p423
aS'v_HeadMassage_g08_c05.avi'
p424
aS'v_HeadMassage_g08_c06.avi'
p425
aS'v_HeadMassage_g08_c07.avi'
p426
aS'v_HeadMassage_g09_c01.avi'
p427
aS'v_HeadMassage_g09_c02.avi'
p428
aS'v_HeadMassage_g09_c03.avi'
p429
asI40
(lp430
S'v_HighJump_g08_c01.avi'
p431
aS'v_HighJump_g08_c02.avi'
p432
aS'v_HighJump_g08_c03.avi'
p433
aS'v_HighJump_g08_c04.avi'
p434
aS'v_HighJump_g08_c05.avi'
p435
aS'v_HighJump_g09_c01.avi'
p436
aS'v_HighJump_g09_c02.avi'
p437
aS'v_HighJump_g09_c03.avi'
p438
aS'v_HighJump_g09_c04.avi'
p439
aS'v_HighJump_g09_c05.avi'
p440
asI41
(lp441
S'v_HorseRace_g08_c01.avi'
p442
aS'v_HorseRace_g08_c02.avi'
p443
aS'v_HorseRace_g08_c03.avi'
p444
aS'v_HorseRace_g08_c04.avi'
p445
aS'v_HorseRace_g08_c05.avi'
p446
aS'v_HorseRace_g09_c01.avi'
p447
aS'v_HorseRace_g09_c02.avi'
p448
aS'v_HorseRace_g09_c03.avi'
p449
aS'v_HorseRace_g09_c04.avi'
p450
aS'v_HorseRace_g10_c01.avi'
p451
asI42
(lp452
S'v_HorseRiding_g08_c01.avi'
p453
aS'v_HorseRiding_g08_c02.avi'
p454
aS'v_HorseRiding_g08_c03.avi'
p455
aS'v_HorseRiding_g08_c04.avi'
p456
aS'v_HorseRiding_g08_c05.avi'
p457
aS'v_HorseRiding_g08_c06.avi'
p458
aS'v_HorseRiding_g09_c01.avi'
p459
aS'v_HorseRiding_g09_c02.avi'
p460
aS'v_HorseRiding_g09_c03.avi'
p461
aS'v_HorseRiding_g09_c04.avi'
p462
asI43
(lp463
S'v_HulaHoop_g08_c01.avi'
p464
aS'v_HulaHoop_g08_c02.avi'
p465
aS'v_HulaHoop_g08_c03.avi'
p466
aS'v_HulaHoop_g08_c04.avi'
p467
aS'v_HulaHoop_g08_c05.avi'
p468
aS'v_HulaHoop_g09_c01.avi'
p469
aS'v_HulaHoop_g09_c02.avi'
p470
aS'v_HulaHoop_g09_c03.avi'
p471
aS'v_HulaHoop_g09_c04.avi'
p472
aS'v_HulaHoop_g09_c05.avi'
p473
asI44
(lp474
S'v_IceDancing_g08_c01.avi'
p475
aS'v_IceDancing_g08_c02.avi'
p476
aS'v_IceDancing_g08_c03.avi'
p477
aS'v_IceDancing_g08_c04.avi'
p478
aS'v_IceDancing_g08_c05.avi'
p479
aS'v_IceDancing_g08_c06.avi'
p480
aS'v_IceDancing_g08_c07.avi'
p481
aS'v_IceDancing_g09_c01.avi'
p482
aS'v_IceDancing_g09_c02.avi'
p483
aS'v_IceDancing_g09_c03.avi'
p484
asI45
(lp485
S'v_JavelinThrow_g08_c01.avi'
p486
aS'v_JavelinThrow_g08_c02.avi'
p487
aS'v_JavelinThrow_g08_c03.avi'
p488
aS'v_JavelinThrow_g08_c04.avi'
p489
aS'v_JavelinThrow_g09_c01.avi'
p490
aS'v_JavelinThrow_g09_c02.avi'
p491
aS'v_JavelinThrow_g09_c03.avi'
p492
aS'v_JavelinThrow_g09_c04.avi'
p493
aS'v_JavelinThrow_g10_c01.avi'
p494
aS'v_JavelinThrow_g10_c02.avi'
p495
asI46
(lp496
S'v_JugglingBalls_g08_c01.avi'
p497
aS'v_JugglingBalls_g08_c02.avi'
p498
aS'v_JugglingBalls_g08_c03.avi'
p499
aS'v_JugglingBalls_g08_c04.avi'
p500
aS'v_JugglingBalls_g08_c05.avi'
p501
aS'v_JugglingBalls_g09_c01.avi'
p502
aS'v_JugglingBalls_g09_c02.avi'
p503
aS'v_JugglingBalls_g09_c03.avi'
p504
aS'v_JugglingBalls_g09_c04.avi'
p505
aS'v_JugglingBalls_g09_c05.avi'
p506
asI47
(lp507
S'v_JumpingJack_g08_c01.avi'
p508
aS'v_JumpingJack_g08_c02.avi'
p509
aS'v_JumpingJack_g08_c03.avi'
p510
aS'v_JumpingJack_g08_c04.avi'
p511
aS'v_JumpingJack_g09_c01.avi'
p512
aS'v_JumpingJack_g09_c02.avi'
p513
aS'v_JumpingJack_g09_c03.avi'
p514
aS'v_JumpingJack_g09_c04.avi'
p515
aS'v_JumpingJack_g09_c05.avi'
p516
aS'v_JumpingJack_g09_c06.avi'
p517
asI48
(lp518
S'v_JumpRope_g08_c01.avi'
p519
aS'v_JumpRope_g08_c02.avi'
p520
aS'v_JumpRope_g08_c03.avi'
p521
aS'v_JumpRope_g08_c04.avi'
p522
aS'v_JumpRope_g08_c05.avi'
p523
aS'v_JumpRope_g08_c06.avi'
p524
aS'v_JumpRope_g08_c07.avi'
p525
aS'v_JumpRope_g09_c01.avi'
p526
aS'v_JumpRope_g09_c02.avi'
p527
aS'v_JumpRope_g09_c03.avi'
p528
asI49
(lp529
S'v_Kayaking_g08_c01.avi'
p530
aS'v_Kayaking_g08_c02.avi'
p531
aS'v_Kayaking_g08_c03.avi'
p532
aS'v_Kayaking_g08_c04.avi'
p533
aS'v_Kayaking_g08_c05.avi'
p534
aS'v_Kayaking_g08_c06.avi'
p535
aS'v_Kayaking_g09_c01.avi'
p536
aS'v_Kayaking_g09_c02.avi'
p537
aS'v_Kayaking_g09_c03.avi'
p538
aS'v_Kayaking_g09_c04.avi'
p539
asI50
(lp540
S'v_Knitting_g08_c01.avi'
p541
aS'v_Knitting_g08_c02.avi'
p542
aS'v_Knitting_g08_c03.avi'
p543
aS'v_Knitting_g08_c04.avi'
p544
aS'v_Knitting_g09_c01.avi'
p545
aS'v_Knitting_g09_c02.avi'
p546
aS'v_Knitting_g09_c03.avi'
p547
aS'v_Knitting_g09_c04.avi'
p548
aS'v_Knitting_g09_c05.avi'
p549
aS'v_Knitting_g10_c01.avi'
p550
asI51
(lp551
S'v_LongJump_g08_c01.avi'
p552
aS'v_LongJump_g08_c02.avi'
p553
aS'v_LongJump_g08_c03.avi'
p554
aS'v_LongJump_g08_c04.avi'
p555
aS'v_LongJump_g08_c05.avi'
p556
aS'v_LongJump_g08_c06.avi'
p557
aS'v_LongJump_g09_c01.avi'
p558
aS'v_LongJump_g09_c02.avi'
p559
aS'v_LongJump_g09_c03.avi'
p560
aS'v_LongJump_g09_c04.avi'
p561
asI52
(lp562
S'v_Lunges_g08_c01.avi'
p563
aS'v_Lunges_g08_c02.avi'
p564
aS'v_Lunges_g08_c03.avi'
p565
aS'v_Lunges_g08_c04.avi'
p566
aS'v_Lunges_g09_c01.avi'
p567
aS'v_Lunges_g09_c02.avi'
p568
aS'v_Lunges_g09_c03.avi'
p569
aS'v_Lunges_g09_c04.avi'
p570
aS'v_Lunges_g10_c01.avi'
p571
aS'v_Lunges_g10_c02.avi'
p572
asI53
(lp573
S'v_MilitaryParade_g08_c01.avi'
p574
aS'v_MilitaryParade_g08_c02.avi'
p575
aS'v_MilitaryParade_g08_c03.avi'
p576
aS'v_MilitaryParade_g08_c04.avi'
p577
aS'v_MilitaryParade_g08_c05.avi'
p578
aS'v_MilitaryParade_g09_c01.avi'
p579
aS'v_MilitaryParade_g09_c02.avi'
p580
aS'v_MilitaryParade_g09_c03.avi'
p581
aS'v_MilitaryParade_g09_c04.avi'
p582
aS'v_MilitaryParade_g09_c05.avi'
p583
asI54
(lp584
S'v_Mixing_g08_c01.avi'
p585
aS'v_Mixing_g08_c02.avi'
p586
aS'v_Mixing_g08_c03.avi'
p587
aS'v_Mixing_g08_c04.avi'
p588
aS'v_Mixing_g08_c05.avi'
p589
aS'v_Mixing_g09_c01.avi'
p590
aS'v_Mixing_g09_c02.avi'
p591
aS'v_Mixing_g09_c03.avi'
p592
aS'v_Mixing_g09_c04.avi'
p593
aS'v_Mixing_g09_c05.avi'
p594
asI55
(lp595
S'v_MoppingFloor_g08_c01.avi'
p596
aS'v_MoppingFloor_g08_c02.avi'
p597
aS'v_MoppingFloor_g08_c03.avi'
p598
aS'v_MoppingFloor_g08_c04.avi'
p599
aS'v_MoppingFloor_g09_c01.avi'
p600
aS'v_MoppingFloor_g09_c02.avi'
p601
aS'v_MoppingFloor_g09_c03.avi'
p602
aS'v_MoppingFloor_g09_c04.avi'
p603
aS'v_MoppingFloor_g10_c01.avi'
p604
aS'v_MoppingFloor_g10_c02.avi'
p605
asI56
(lp606
S'v_Nunchucks_g08_c01.avi'
p607
aS'v_Nunchucks_g08_c02.avi'
p608
aS'v_Nunchucks_g08_c03.avi'
p609
aS'v_Nunchucks_g08_c04.avi'
p610
aS'v_Nunchucks_g08_c05.avi'
p611
aS'v_Nunchucks_g08_c06.avi'
p612
aS'v_Nunchucks_g08_c07.avi'
p613
aS'v_Nunchucks_g09_c01.avi'
p614
aS'v_Nunchucks_g09_c02.avi'
p615
aS'v_Nunchucks_g09_c03.avi'
p616
asI57
(lp617
S'v_ParallelBars_g08_c01.avi'
p618
aS'v_ParallelBars_g08_c02.avi'
p619
aS'v_ParallelBars_g08_c03.avi'
p620
aS'v_ParallelBars_g08_c04.avi'
p621
aS'v_ParallelBars_g08_c05.avi'
p622
aS'v_ParallelBars_g09_c01.avi'
p623
aS'v_ParallelBars_g09_c02.avi'
p624
aS'v_ParallelBars_g09_c03.avi'
p625
aS'v_ParallelBars_g09_c04.avi'
p626
aS'v_ParallelBars_g09_c05.avi'
p627
asI58
(lp628
S'v_PizzaTossing_g08_c01.avi'
p629
aS'v_PizzaTossing_g08_c02.avi'
p630
aS'v_PizzaTossing_g08_c03.avi'
p631
aS'v_PizzaTossing_g08_c04.avi'
p632
aS'v_PizzaTossing_g09_c01.avi'
p633
aS'v_PizzaTossing_g09_c02.avi'
p634
aS'v_PizzaTossing_g09_c03.avi'
p635
aS'v_PizzaTossing_g09_c04.avi'
p636
aS'v_PizzaTossing_g10_c01.avi'
p637
aS'v_PizzaTossing_g10_c02.avi'
p638
asI59
(lp639
S'v_PlayingCello_g08_c01.avi'
p640
aS'v_PlayingCello_g08_c02.avi'
p641
aS'v_PlayingCello_g08_c03.avi'
p642
aS'v_PlayingCello_g08_c04.avi'
p643
aS'v_PlayingCello_g08_c05.avi'
p644
aS'v_PlayingCello_g08_c06.avi'
p645
aS'v_PlayingCello_g09_c01.avi'
p646
aS'v_PlayingCello_g09_c02.avi'
p647
aS'v_PlayingCello_g09_c03.avi'
p648
aS'v_PlayingCello_g09_c04.avi'
p649
asI60
(lp650
S'v_PlayingDaf_g08_c01.avi'
p651
aS'v_PlayingDaf_g08_c02.avi'
p652
aS'v_PlayingDaf_g08_c03.avi'
p653
aS'v_PlayingDaf_g08_c04.avi'
p654
aS'v_PlayingDaf_g08_c05.avi'
p655
aS'v_PlayingDaf_g08_c06.avi'
p656
aS'v_PlayingDaf_g08_c07.avi'
p657
aS'v_PlayingDaf_g09_c01.avi'
p658
aS'v_PlayingDaf_g09_c02.avi'
p659
aS'v_PlayingDaf_g09_c03.avi'
p660
asI61
(lp661
S'v_PlayingDhol_g08_c01.avi'
p662
aS'v_PlayingDhol_g08_c02.avi'
p663
aS'v_PlayingDhol_g08_c03.avi'
p664
aS'v_PlayingDhol_g08_c04.avi'
p665
aS'v_PlayingDhol_g08_c05.avi'
p666
aS'v_PlayingDhol_g08_c06.avi'
p667
aS'v_PlayingDhol_g08_c07.avi'
p668
aS'v_PlayingDhol_g09_c01.avi'
p669
aS'v_PlayingDhol_g09_c02.avi'
p670
aS'v_PlayingDhol_g09_c03.avi'
p671
asI62
(lp672
S'v_PlayingFlute_g08_c01.avi'
p673
aS'v_PlayingFlute_g08_c02.avi'
p674
aS'v_PlayingFlute_g08_c03.avi'
p675
aS'v_PlayingFlute_g08_c04.avi'
p676
aS'v_PlayingFlute_g08_c05.avi'
p677
aS'v_PlayingFlute_g08_c06.avi'
p678
aS'v_PlayingFlute_g08_c07.avi'
p679
aS'v_PlayingFlute_g09_c01.avi'
p680
aS'v_PlayingFlute_g09_c02.avi'
p681
aS'v_PlayingFlute_g09_c03.avi'
p682
asI63
(lp683
S'v_PlayingGuitar_g08_c01.avi'
p684
aS'v_PlayingGuitar_g08_c02.avi'
p685
aS'v_PlayingGuitar_g08_c03.avi'
p686
aS'v_PlayingGuitar_g08_c04.avi'
p687
aS'v_PlayingGuitar_g08_c05.avi'
p688
aS'v_PlayingGuitar_g08_c06.avi'
p689
aS'v_PlayingGuitar_g08_c07.avi'
p690
aS'v_PlayingGuitar_g09_c01.avi'
p691
aS'v_PlayingGuitar_g09_c02.avi'
p692
aS'v_PlayingGuitar_g09_c03.avi'
p693
asI64
(lp694
S'v_PlayingPiano_g08_c01.avi'
p695
aS'v_PlayingPiano_g08_c02.avi'
p696
aS'v_PlayingPiano_g08_c03.avi'
p697
aS'v_PlayingPiano_g08_c04.avi'
p698
aS'v_PlayingPiano_g09_c01.avi'
p699
aS'v_PlayingPiano_g09_c02.avi'
p700
aS'v_PlayingPiano_g09_c03.avi'
p701
aS'v_PlayingPiano_g09_c04.avi'
p702
aS'v_PlayingPiano_g10_c01.avi'
p703
aS'v_PlayingPiano_g10_c02.avi'
p704
asI65
(lp705
S'v_PlayingSitar_g08_c01.avi'
p706
aS'v_PlayingSitar_g08_c02.avi'
p707
aS'v_PlayingSitar_g08_c03.avi'
p708
aS'v_PlayingSitar_g08_c04.avi'
p709
aS'v_PlayingSitar_g08_c05.avi'
p710
aS'v_PlayingSitar_g08_c06.avi'
p711
aS'v_PlayingSitar_g08_c07.avi'
p712
aS'v_PlayingSitar_g09_c01.avi'
p713
aS'v_PlayingSitar_g09_c02.avi'
p714
aS'v_PlayingSitar_g09_c03.avi'
p715
asI66
(lp716
S'v_PlayingTabla_g08_c01.avi'
p717
aS'v_PlayingTabla_g08_c02.avi'
p718
aS'v_PlayingTabla_g08_c03.avi'
p719
aS'v_PlayingTabla_g08_c04.avi'
p720
aS'v_PlayingTabla_g09_c01.avi'
p721
aS'v_PlayingTabla_g09_c02.avi'
p722
aS'v_PlayingTabla_g09_c03.avi'
p723
aS'v_PlayingTabla_g09_c04.avi'
p724
aS'v_PlayingTabla_g09_c05.avi'
p725
aS'v_PlayingTabla_g10_c01.avi'
p726
asI67
(lp727
S'v_PlayingViolin_g08_c01.avi'
p728
aS'v_PlayingViolin_g08_c02.avi'
p729
aS'v_PlayingViolin_g08_c03.avi'
p730
aS'v_PlayingViolin_g08_c04.avi'
p731
aS'v_PlayingViolin_g09_c01.avi'
p732
aS'v_PlayingViolin_g09_c02.avi'
p733
aS'v_PlayingViolin_g09_c03.avi'
p734
aS'v_PlayingViolin_g09_c04.avi'
p735
aS'v_PlayingViolin_g10_c01.avi'
p736
aS'v_PlayingViolin_g10_c02.avi'
p737
asI68
(lp738
S'v_PoleVault_g08_c01.avi'
p739
aS'v_PoleVault_g08_c02.avi'
p740
aS'v_PoleVault_g08_c03.avi'
p741
aS'v_PoleVault_g08_c04.avi'
p742
aS'v_PoleVault_g09_c01.avi'
p743
aS'v_PoleVault_g09_c02.avi'
p744
aS'v_PoleVault_g09_c03.avi'
p745
aS'v_PoleVault_g09_c04.avi'
p746
aS'v_PoleVault_g10_c01.avi'
p747
aS'v_PoleVault_g10_c02.avi'
p748
asI69
(lp749
S'v_PommelHorse_g08_c01.avi'
p750
aS'v_PommelHorse_g08_c02.avi'
p751
aS'v_PommelHorse_g08_c03.avi'
p752
aS'v_PommelHorse_g08_c04.avi'
p753
aS'v_PommelHorse_g09_c01.avi'
p754
aS'v_PommelHorse_g09_c02.avi'
p755
aS'v_PommelHorse_g09_c03.avi'
p756
aS'v_PommelHorse_g09_c04.avi'
p757
aS'v_PommelHorse_g10_c01.avi'
p758
aS'v_PommelHorse_g10_c02.avi'
p759
asI70
(lp760
S'v_PullUps_g08_c01.avi'
p761
aS'v_PullUps_g08_c02.avi'
p762
aS'v_PullUps_g08_c03.avi'
p763
aS'v_PullUps_g08_c04.avi'
p764
aS'v_PullUps_g09_c01.avi'
p765
aS'v_PullUps_g09_c02.avi'
p766
aS'v_PullUps_g09_c03.avi'
p767
aS'v_PullUps_g09_c04.avi'
p768
aS'v_PullUps_g10_c01.avi'
p769
aS'v_PullUps_g10_c02.avi'
p770
asI71
(lp771
S'v_Punch_g08_c01.avi'
p772
aS'v_Punch_g08_c02.avi'
p773
aS'v_Punch_g08_c03.avi'
p774
aS'v_Punch_g08_c04.avi'
p775
aS'v_Punch_g08_c05.avi'
p776
aS'v_Punch_g08_c06.avi'
p777
aS'v_Punch_g08_c07.avi'
p778
aS'v_Punch_g09_c01.avi'
p779
aS'v_Punch_g09_c02.avi'
p780
aS'v_Punch_g09_c03.avi'
p781
asI72
(lp782
S'v_PushUps_g08_c01.avi'
p783
aS'v_PushUps_g08_c02.avi'
p784
aS'v_PushUps_g08_c03.avi'
p785
aS'v_PushUps_g08_c04.avi'
p786
aS'v_PushUps_g09_c01.avi'
p787
aS'v_PushUps_g09_c02.avi'
p788
aS'v_PushUps_g09_c03.avi'
p789
aS'v_PushUps_g09_c04.avi'
p790
aS'v_PushUps_g10_c01.avi'
p791
aS'v_PushUps_g10_c02.avi'
p792
asI73
(lp793
S'v_Rafting_g08_c01.avi'
p794
aS'v_Rafting_g08_c02.avi'
p795
aS'v_Rafting_g08_c03.avi'
p796
aS'v_Rafting_g08_c04.avi'
p797
aS'v_Rafting_g08_c05.avi'
p798
aS'v_Rafting_g08_c06.avi'
p799
aS'v_Rafting_g09_c01.avi'
p800
aS'v_Rafting_g09_c02.avi'
p801
aS'v_Rafting_g09_c03.avi'
p802
aS'v_Rafting_g09_c04.avi'
p803
asI74
(lp804
S'v_RockClimbingIndoor_g08_c01.avi'
p805
aS'v_RockClimbingIndoor_g08_c02.avi'
p806
aS'v_RockClimbingIndoor_g08_c03.avi'
p807
aS'v_RockClimbingIndoor_g08_c04.avi'
p808
aS'v_RockClimbingIndoor_g08_c05.avi'
p809
aS'v_RockClimbingIndoor_g08_c06.avi'
p810
aS'v_RockClimbingIndoor_g08_c07.avi'
p811
aS'v_RockClimbingIndoor_g09_c01.avi'
p812
aS'v_RockClimbingIndoor_g09_c02.avi'
p813
aS'v_RockClimbingIndoor_g09_c03.avi'
p814
asI75
(lp815
S'v_RopeClimbing_g08_c01.avi'
p816
aS'v_RopeClimbing_g08_c02.avi'
p817
aS'v_RopeClimbing_g08_c03.avi'
p818
aS'v_RopeClimbing_g08_c04.avi'
p819
aS'v_RopeClimbing_g09_c01.avi'
p820
aS'v_RopeClimbing_g09_c02.avi'
p821
aS'v_RopeClimbing_g09_c03.avi'
p822
aS'v_RopeClimbing_g09_c04.avi'
p823
aS'v_RopeClimbing_g10_c01.avi'
p824
aS'v_RopeClimbing_g10_c02.avi'
p825
asI76
(lp826
S'v_Rowing_g08_c01.avi'
p827
aS'v_Rowing_g08_c02.avi'
p828
aS'v_Rowing_g08_c03.avi'
p829
aS'v_Rowing_g08_c04.avi'
p830
aS'v_Rowing_g09_c01.avi'
p831
aS'v_Rowing_g09_c02.avi'
p832
aS'v_Rowing_g09_c03.avi'
p833
aS'v_Rowing_g09_c04.avi'
p834
aS'v_Rowing_g09_c05.avi'
p835
aS'v_Rowing_g09_c06.avi'
p836
asI77
(lp837
S'v_SalsaSpin_g08_c01.avi'
p838
aS'v_SalsaSpin_g08_c02.avi'
p839
aS'v_SalsaSpin_g08_c03.avi'
p840
aS'v_SalsaSpin_g08_c04.avi'
p841
aS'v_SalsaSpin_g08_c05.avi'
p842
aS'v_SalsaSpin_g09_c01.avi'
p843
aS'v_SalsaSpin_g09_c02.avi'
p844
aS'v_SalsaSpin_g09_c03.avi'
p845
aS'v_SalsaSpin_g09_c04.avi'
p846
aS'v_SalsaSpin_g09_c05.avi'
p847
asI78
(lp848
S'v_ShavingBeard_g08_c01.avi'
p849
aS'v_ShavingBeard_g08_c02.avi'
p850
aS'v_ShavingBeard_g08_c03.avi'
p851
aS'v_ShavingBeard_g08_c04.avi'
p852
aS'v_ShavingBeard_g08_c05.avi'
p853
aS'v_ShavingBeard_g08_c06.avi'
p854
aS'v_ShavingBeard_g08_c07.avi'
p855
aS'v_ShavingBeard_g09_c01.avi'
p856
aS'v_ShavingBeard_g09_c02.avi'
p857
aS'v_ShavingBeard_g09_c03.avi'
p858
asI79
(lp859
S'v_Shotput_g08_c01.avi'
p860
aS'v_Shotput_g08_c02.avi'
p861
aS'v_Shotput_g08_c03.avi'
p862
aS'v_Shotput_g08_c04.avi'
p863
aS'v_Shotput_g08_c05.avi'
p864
aS'v_Shotput_g08_c06.avi'
p865
aS'v_Shotput_g08_c07.avi'
p866
aS'v_Shotput_g09_c01.avi'
p867
aS'v_Shotput_g09_c02.avi'
p868
aS'v_Shotput_g09_c03.avi'
p869
asI80
(lp870
S'v_SkateBoarding_g08_c01.avi'
p871
aS'v_SkateBoarding_g08_c02.avi'
p872
aS'v_SkateBoarding_g08_c03.avi'
p873
aS'v_SkateBoarding_g08_c04.avi'
p874
aS'v_SkateBoarding_g08_c05.avi'
p875
aS'v_SkateBoarding_g09_c01.avi'
p876
aS'v_SkateBoarding_g09_c02.avi'
p877
aS'v_SkateBoarding_g09_c03.avi'
p878
aS'v_SkateBoarding_g09_c04.avi'
p879
aS'v_SkateBoarding_g10_c01.avi'
p880
asI81
(lp881
S'v_Skiing_g08_c01.avi'
p882
aS'v_Skiing_g08_c02.avi'
p883
aS'v_Skiing_g08_c03.avi'
p884
aS'v_Skiing_g08_c04.avi'
p885
aS'v_Skiing_g08_c05.avi'
p886
aS'v_Skiing_g08_c06.avi'
p887
aS'v_Skiing_g08_c07.avi'
p888
aS'v_Skiing_g09_c01.avi'
p889
aS'v_Skiing_g09_c02.avi'
p890
aS'v_Skiing_g09_c03.avi'
p891
asI82
(lp892
S'v_Skijet_g08_c01.avi'
p893
aS'v_Skijet_g08_c02.avi'
p894
aS'v_Skijet_g08_c03.avi'
p895
aS'v_Skijet_g08_c04.avi'
p896
aS'v_Skijet_g09_c01.avi'
p897
aS'v_Skijet_g09_c02.avi'
p898
aS'v_Skijet_g09_c03.avi'
p899
aS'v_Skijet_g09_c04.avi'
p900
aS'v_Skijet_g10_c01.avi'
p901
aS'v_Skijet_g10_c02.avi'
p902
asI83
(lp903
S'v_SkyDiving_g08_c01.avi'
p904
aS'v_SkyDiving_g08_c02.avi'
p905
aS'v_SkyDiving_g08_c03.avi'
p906
aS'v_SkyDiving_g08_c04.avi'
p907
aS'v_SkyDiving_g09_c01.avi'
p908
aS'v_SkyDiving_g09_c02.avi'
p909
aS'v_SkyDiving_g09_c03.avi'
p910
aS'v_SkyDiving_g09_c04.avi'
p911
aS'v_SkyDiving_g10_c01.avi'
p912
aS'v_SkyDiving_g10_c02.avi'
p913
asI84
(lp914
S'v_SoccerJuggling_g08_c01.avi'
p915
aS'v_SoccerJuggling_g08_c02.avi'
p916
aS'v_SoccerJuggling_g08_c03.avi'
p917
aS'v_SoccerJuggling_g08_c04.avi'
p918
aS'v_SoccerJuggling_g09_c01.avi'
p919
aS'v_SoccerJuggling_g09_c02.avi'
p920
aS'v_SoccerJuggling_g09_c03.avi'
p921
aS'v_SoccerJuggling_g09_c04.avi'
p922
aS'v_SoccerJuggling_g09_c05.avi'
p923
aS'v_SoccerJuggling_g09_c06.avi'
p924
asI85
(lp925
S'v_SoccerPenalty_g08_c01.avi'
p926
aS'v_SoccerPenalty_g08_c02.avi'
p927
aS'v_SoccerPenalty_g08_c03.avi'
p928
aS'v_SoccerPenalty_g08_c04.avi'
p929
aS'v_SoccerPenalty_g08_c05.avi'
p930
aS'v_SoccerPenalty_g08_c06.avi'
p931
aS'v_SoccerPenalty_g09_c01.avi'
p932
aS'v_SoccerPenalty_g09_c02.avi'
p933
aS'v_SoccerPenalty_g09_c03.avi'
p934
aS'v_SoccerPenalty_g09_c04.avi'
p935
asI86
(lp936
S'v_StillRings_g08_c01.avi'
p937
aS'v_StillRings_g08_c02.avi'
p938
aS'v_StillRings_g08_c03.avi'
p939
aS'v_StillRings_g08_c04.avi'
p940
aS'v_StillRings_g09_c01.avi'
p941
aS'v_StillRings_g09_c02.avi'
p942
aS'v_StillRings_g09_c03.avi'
p943
aS'v_StillRings_g09_c04.avi'
p944
aS'v_StillRings_g10_c01.avi'
p945
aS'v_StillRings_g10_c02.avi'
p946
asI87
(lp947
S'v_SumoWrestling_g08_c01.avi'
p948
aS'v_SumoWrestling_g08_c02.avi'
p949
aS'v_SumoWrestling_g08_c03.avi'
p950
aS'v_SumoWrestling_g08_c04.avi'
p951
aS'v_SumoWrestling_g08_c05.avi'
p952
aS'v_SumoWrestling_g08_c06.avi'
p953
aS'v_SumoWrestling_g08_c07.avi'
p954
aS'v_SumoWrestling_g09_c01.avi'
p955
aS'v_SumoWrestling_g09_c02.avi'
p956
aS'v_SumoWrestling_g09_c03.avi'
p957
asI88
(lp958
S'v_Surfing_g08_c01.avi'
p959
aS'v_Surfing_g08_c02.avi'
p960
aS'v_Surfing_g08_c03.avi'
p961
aS'v_Surfing_g08_c04.avi'
p962
aS'v_Surfing_g08_c05.avi'
p963
aS'v_Surfing_g08_c06.avi'
p964
aS'v_Surfing_g08_c07.avi'
p965
aS'v_Surfing_g09_c01.avi'
p966
aS'v_Surfing_g09_c02.avi'
p967
aS'v_Surfing_g09_c03.avi'
p968
asI89
(lp969
S'v_Swing_g08_c01.avi'
p970
aS'v_Swing_g08_c02.avi'
p971
aS'v_Swing_g08_c03.avi'
p972
aS'v_Swing_g08_c04.avi'
p973
aS'v_Swing_g08_c05.avi'
p974
aS'v_Swing_g09_c01.avi'
p975
aS'v_Swing_g09_c02.avi'
p976
aS'v_Swing_g09_c03.avi'
p977
aS'v_Swing_g09_c04.avi'
p978
aS'v_Swing_g09_c05.avi'
p979
asI90
(lp980
S'v_TableTennisShot_g08_c01.avi'
p981
aS'v_TableTennisShot_g08_c02.avi'
p982
aS'v_TableTennisShot_g08_c03.avi'
p983
aS'v_TableTennisShot_g08_c04.avi'
p984
aS'v_TableTennisShot_g09_c01.avi'
p985
aS'v_TableTennisShot_g09_c02.avi'
p986
aS'v_TableTennisShot_g09_c03.avi'
p987
aS'v_TableTennisShot_g09_c04.avi'
p988
aS'v_TableTennisShot_g09_c05.avi'
p989
aS'v_TableTennisShot_g09_c06.avi'
p990
asI91
(lp991
S'v_TaiChi_g08_c01.avi'
p992
aS'v_TaiChi_g08_c02.avi'
p993
aS'v_TaiChi_g08_c03.avi'
p994
aS'v_TaiChi_g08_c04.avi'
p995
aS'v_TaiChi_g09_c01.avi'
p996
aS'v_TaiChi_g09_c02.avi'
p997
aS'v_TaiChi_g09_c03.avi'
p998
aS'v_TaiChi_g09_c04.avi'
p999
aS'v_TaiChi_g10_c01.avi'
p1000
aS'v_TaiChi_g10_c02.avi'
p1001
asI92
(lp1002
S'v_TennisSwing_g08_c01.avi'
p1003
aS'v_TennisSwing_g08_c02.avi'
p1004
aS'v_TennisSwing_g08_c03.avi'
p1005
aS'v_TennisSwing_g08_c04.avi'
p1006
aS'v_TennisSwing_g08_c05.avi'
p1007
aS'v_TennisSwing_g08_c06.avi'
p1008
aS'v_TennisSwing_g09_c01.avi'
p1009
aS'v_TennisSwing_g09_c02.avi'
p1010
aS'v_TennisSwing_g09_c03.avi'
p1011
aS'v_TennisSwing_g09_c04.avi'
p1012
asI93
(lp1013
S'v_ThrowDiscus_g08_c01.avi'
p1014
aS'v_ThrowDiscus_g08_c02.avi'
p1015
aS'v_ThrowDiscus_g08_c03.avi'
p1016
aS'v_ThrowDiscus_g08_c04.avi'
p1017
aS'v_ThrowDiscus_g09_c01.avi'
p1018
aS'v_ThrowDiscus_g09_c02.avi'
p1019
aS'v_ThrowDiscus_g09_c03.avi'
p1020
aS'v_ThrowDiscus_g09_c04.avi'
p1021
aS'v_ThrowDiscus_g09_c05.avi'
p1022
aS'v_ThrowDiscus_g09_c06.avi'
p1023
asI94
(lp1024
S'v_TrampolineJumping_g08_c01.avi'
p1025
aS'v_TrampolineJumping_g08_c02.avi'
p1026
aS'v_TrampolineJumping_g08_c03.avi'
p1027
aS'v_TrampolineJumping_g08_c04.avi'
p1028
aS'v_TrampolineJumping_g09_c01.avi'
p1029
aS'v_TrampolineJumping_g09_c02.avi'
p1030
aS'v_TrampolineJumping_g09_c03.avi'
p1031
aS'v_TrampolineJumping_g09_c04.avi'
p1032
aS'v_TrampolineJumping_g09_c05.avi'
p1033
aS'v_TrampolineJumping_g09_c06.avi'
p1034
asI95
(lp1035
S'v_Typing_g08_c01.avi'
p1036
aS'v_Typing_g08_c02.avi'
p1037
aS'v_Typing_g08_c03.avi'
p1038
aS'v_Typing_g08_c04.avi'
p1039
aS'v_Typing_g08_c05.avi'
p1040
aS'v_Typing_g08_c06.avi'
p1041
aS'v_Typing_g08_c07.avi'
p1042
aS'v_Typing_g09_c01.avi'
p1043
aS'v_Typing_g09_c02.avi'
p1044
aS'v_Typing_g09_c03.avi'
p1045
asI96
(lp1046
S'v_UnevenBars_g08_c01.avi'
p1047
aS'v_UnevenBars_g08_c02.avi'
p1048
aS'v_UnevenBars_g08_c03.avi'
p1049
aS'v_UnevenBars_g08_c04.avi'
p1050
aS'v_UnevenBars_g09_c01.avi'
p1051
aS'v_UnevenBars_g09_c02.avi'
p1052
aS'v_UnevenBars_g09_c03.avi'
p1053
aS'v_UnevenBars_g09_c04.avi'
p1054
aS'v_UnevenBars_g10_c01.avi'
p1055
aS'v_UnevenBars_g10_c02.avi'
p1056
asI97
(lp1057
S'v_VolleyballSpiking_g08_c01.avi'
p1058
aS'v_VolleyballSpiking_g08_c02.avi'
p1059
aS'v_VolleyballSpiking_g08_c03.avi'
p1060
aS'v_VolleyballSpiking_g08_c04.avi'
p1061
aS'v_VolleyballSpiking_g08_c05.avi'
p1062
aS'v_VolleyballSpiking_g08_c06.avi'
p1063
aS'v_VolleyballSpiking_g09_c01.avi'
p1064
aS'v_VolleyballSpiking_g09_c02.avi'
p1065
aS'v_VolleyballSpiking_g09_c03.avi'
p1066
aS'v_VolleyballSpiking_g09_c04.avi'
p1067
asI98
(lp1068
S'v_WalkingWithDog_g08_c01.avi'
p1069
aS'v_WalkingWithDog_g08_c02.avi'
p1070
aS'v_WalkingWithDog_g08_c03.avi'
p1071
aS'v_WalkingWithDog_g08_c04.avi'
p1072
aS'v_WalkingWithDog_g08_c05.avi'
p1073
aS'v_WalkingWithDog_g09_c01.avi'
p1074
aS'v_WalkingWithDog_g09_c02.avi'
p1075
aS'v_WalkingWithDog_g09_c03.avi'
p1076
aS'v_WalkingWithDog_g09_c04.avi'
p1077
aS'v_WalkingWithDog_g09_c05.avi'
p1078
asI99
(lp1079
S'v_WallPushups_g08_c01.avi'
p1080
aS'v_WallPushups_g08_c02.avi'
p1081
aS'v_WallPushups_g08_c03.avi'
p1082
aS'v_WallPushups_g08_c04.avi'
p1083
aS'v_WallPushups_g08_c05.avi'
p1084
aS'v_WallPushups_g09_c01.avi'
p1085
aS'v_WallPushups_g09_c02.avi'
p1086
aS'v_WallPushups_g09_c03.avi'
p1087
aS'v_WallPushups_g09_c04.avi'
p1088
aS'v_WallPushups_g09_c05.avi'
p1089
asI100
(lp1090
S'v_WritingOnBoard_g08_c01.avi'
p1091
aS'v_WritingOnBoard_g08_c02.avi'
p1092
aS'v_WritingOnBoard_g08_c03.avi'
p1093
aS'v_WritingOnBoard_g08_c04.avi'
p1094
aS'v_WritingOnBoard_g09_c01.avi'
p1095
aS'v_WritingOnBoard_g09_c02.avi'
p1096
aS'v_WritingOnBoard_g09_c03.avi'
p1097
aS'v_WritingOnBoard_g09_c04.avi'
p1098
aS'v_WritingOnBoard_g09_c05.avi'
p1099
aS'v_WritingOnBoard_g09_c06.avi'
p1100
asI101
(lp1101
S'v_YoYo_g08_c01.avi'
p1102
aS'v_YoYo_g08_c02.avi'
p1103
aS'v_YoYo_g08_c03.avi'
p1104
aS'v_YoYo_g08_c04.avi'
p1105
aS'v_YoYo_g08_c05.avi'
p1106
aS'v_YoYo_g09_c01.avi'
p1107
aS'v_YoYo_g09_c02.avi'
p1108
aS'v_YoYo_g09_c03.avi'
p1109
aS'v_YoYo_g09_c04.avi'
p1110
aS'v_YoYo_g09_c05.avi'
p1111
as.