((dp0
S'militaryparade'
p1
I52
sS'haircut'
p2
I33
sS'parallelbars'
p3
I56
sS'cliffdiving'
p4
I21
sS'skiing'
p5
I80
sS'balancebeam'
p6
I4
sS'taichi'
p7
I90
sS'frontcrawl'
p8
I31
sS'yoyo'
p9
I100
sS'horseriding'
p10
I41
sS'applyeyemakeup'
p11
I0
sS'boxingspeedbag'
p12
I17
sS'babycrawling'
p13
I3
sS'playingtabla'
p14
I65
sS'handstandwalking'
p15
I37
sS'mixing'
p16
I53
sS'handstandpushups'
p17
I36
sS'cleanandjerk'
p18
I20
sS'rowing'
p19
I75
sS'kayaking'
p20
I48
sS'bowling'
p21
I15
sS'blowdryhair'
p22
I12
sS'golfswing'
p23
I32
sS'soccerpenalty'
p24
I84
sS'writingonboard'
p25
I99
sS'javelinthrow'
p26
I44
sS'jumprope'
p27
I47
sS'hammerthrow'
p28
I35
sS'baseballpitch'
p29
I6
sS'salsaspin'
p30
I76
sS'skateboarding'
p31
I79
sS'diving'
p32
I25
sS'pommelhorse'
p33
I68
sS'icedancing'
p34
I43
sS'highjump'
p35
I39
sS'basketballdunk'
p36
I8
sS'cuttinginkitchen'
p37
I24
sS'punch'
p38
I70
sS'pullups'
p39
I69
sS'rockclimbingindoor'
p40
I73
sS'bandmarching'
p41
I5
sS'shotput'
p42
I78
sS'drumming'
p43
I26
sS'playingdaf'
p44
I59
sS'tennisswing'
p45
I91
sS'playingviolin'
p46
I66
sS'blowingcandles'
p47
I13
sS'bodyweightsquats'
p48
I14
sS'swing'
p49
I88
sS'rafting'
p50
I72
sS'playingdhol'
p51
I60
sS'trampolinejumping'
p52
I93
sS'polevault'
p53
I67
sS'cricketshot'
p54
I23
sS'playingcello'
p55
I58
sS'cricketbowling'
p56
I22
sS'longjump'
p57
I50
sS'moppingfloor'
p58
I54
sS'throwdiscus'
p59
I92
sS'basketball'
p60
I7
sS'volleyballspiking'
p61
I96
sS'stillrings'
p62
I85
sS'fieldhockeypenalty'
p63
I28
sS'playingpiano'
p64
I63
sS'floorgymnastics'
p65
I29
sS'typing'
p66
I94
sS'archery'
p67
I2
sS'lunges'
p68
I51
sS'skijet'
p69
I81
sS'headmassage'
p70
I38
sS'playingsitar'
p71
I64
sS'horserace'
p72
I40
sS'tabletennisshot'
p73
I89
sS'biking'
p74
I10
sS'pizzatossing'
p75
I57
sS'skydiving'
p76
I82
sS'unevenbars'
p77
I95
sS'playingflute'
p78
I61
sS'benchpress'
p79
I9
sS'fencing'
p80
I27
sS'billiards'
p81
I11
sS'sumowrestling'
p82
I86
sS'pushups'
p83
I71
sS'shavingbeard'
p84
I77
sS'playingguitar'
p85
I62
sS'breaststroke'
p86
I18
sS'applylipstick'
p87
I1
sS'frisbeecatch'
p88
I30
sS'jumpingjack'
p89
I46
sS'hammering'
p90
I34
sS'knitting'
p91
I49
sS'wallpushups'
p92
I98
sS'hulahoop'
p93
I42
sS'ropeclimbing'
p94
I74
sS'soccerjuggling'
p95
I83
sS'brushingteeth'
p96
I19
sS'walkingwithdog'
p97
I97
sS'nunchucks'
p98
I55
sS'surfing'
p99
I87
sS'boxingpunchingbag'
p100
I16
sS'jugglingballs'
p101
I45
s(dp102
I0
g11
sI1
g87
sI2
g67
sI3
g13
sI4
g6
sI5
g41
sI6
g29
sI7
g60
sI8
g36
sI9
g79
sI10
g74
sI11
g81
sI12
g22
sI13
g47
sI14
g48
sI15
g21
sI16
g100
sI17
g12
sI18
g86
sI19
g96
sI20
g18
sI21
g4
sI22
g56
sI23
g54
sI24
g37
sI25
g32
sI26
g43
sI27
g80
sI28
g63
sI29
g65
sI30
g88
sI31
g8
sI32
g23
sI33
g2
sI34
g90
sI35
g28
sI36
g17
sI37
g15
sI38
g70
sI39
g35
sI40
g72
sI41
g10
sI42
g93
sI43
g34
sI44
g26
sI45
g101
sI46
g89
sI47
g27
sI48
g20
sI49
g91
sI50
g57
sI51
g68
sI52
g1
sI53
g16
sI54
g58
sI55
g98
sI56
g3
sI57
g75
sI58
g55
sI59
g44
sI60
g51
sI61
g78
sI62
g85
sI63
g64
sI64
g71
sI65
g14
sI66
g46
sI67
g53
sI68
g33
sI69
g39
sI70
g38
sI71
g83
sI72
g50
sI73
g40
sI74
g94
sI75
g19
sI76
g30
sI77
g84
sI78
g42
sI79
g31
sI80
g5
sI81
g69
sI82
g76
sI83
g95
sI84
g24
sI85
g62
sI86
g82
sI87
g99
sI88
g49
sI89
g73
sI90
g7
sI91
g45
sI92
g59
sI93
g52
sI94
g66
sI95
g77
sI96
g61
sI97
g97
sI98
g92
sI99
g25
sI100
g9
stp103
.